target datalayout = "e-m:e-p270:32:32-p271:32:32-p272:64:64-i64:64-i128:128-f80:128-n8:16:32:64-S128"
target triple = "x86_64-pc-linux-gnu"

%struct.DdManager = type { %struct.DdNode, ptr, ptr, ptr, ptr, ptr, ptr, ptr, i32, i32, double, double, double, i32, i32, i32, i32, i32, i32, ptr, ptr, %struct.DdSubtable, i32, i32, i32, i32, i32, i32, i32, double, i32, i32, i32, ptr, i64, double, i32, ptr, ptr, ptr, ptr, ptr, ptr, ptr, i32, ptr, ptr, ptr, ptr, ptr, ptr, i32, i32, i32, double, i32, i32, i32, i32, double, double, i32, i32, i32, i32, i32, i32, i32, i32, i32, ptr, ptr, i32, i32, i32, i32, i32, i32, ptr, ptr, ptr, ptr, ptr, ptr, ptr, ptr, i32, i64, i64, i64, i32, i64, i64, double, double, double, double, double, double, i32, ptr, ptr, i64 }
%struct.DdNode = type { i32, i32, ptr, %union.anon, i64 }
%union.anon = type { %struct.DdChildren }
%struct.DdChildren = type { ptr, ptr }
%struct.DdSubtable = type { ptr, i32, i32, i32, i32, i32, i32, i32, i32, i32, i32, i32 }
%struct.DdHook = type { ptr, ptr }

; Function Attrs: nounwind uwtable
define i32 @Cudd_AddHook(ptr noundef %0, ptr noundef %1, i32 noundef %2) #0 {
  %4 = alloca i32, align 4
  %5 = alloca ptr, align 8
  %6 = alloca ptr, align 8
  %7 = alloca i32, align 4
  %8 = alloca ptr, align 8
  %9 = alloca ptr, align 8
  %10 = alloca ptr, align 8
  store ptr %0, ptr %5, align 8
  store ptr %1, ptr %6, align 8
  store i32 %2, ptr %7, align 4
  %11 = load i32, ptr %7, align 4
  switch i32 %11, label %24 [
    i32 0, label %12
    i32 1, label %15
    i32 2, label %18
    i32 3, label %21
  ]

12:                                               ; preds = %3
  %13 = load ptr, ptr %5, align 8
  %14 = getelementptr inbounds %struct.DdManager, ptr %13, i32 0, i32 80
  store ptr %14, ptr %8, align 8
  br label %25

15:                                               ; preds = %3
  %16 = load ptr, ptr %5, align 8
  %17 = getelementptr inbounds %struct.DdManager, ptr %16, i32 0, i32 81
  store ptr %17, ptr %8, align 8
  br label %25

18:                                               ; preds = %3
  %19 = load ptr, ptr %5, align 8
  %20 = getelementptr inbounds %struct.DdManager, ptr %19, i32 0, i32 82
  store ptr %20, ptr %8, align 8
  br label %25

21:                                               ; preds = %3
  %22 = load ptr, ptr %5, align 8
  %23 = getelementptr inbounds %struct.DdManager, ptr %22, i32 0, i32 83
  store ptr %23, ptr %8, align 8
  br label %25

24:                                               ; preds = %3
  store i32 0, ptr %4, align 4
  br label %59

25:                                               ; preds = %21, %18, %15, %12
  %26 = load ptr, ptr %8, align 8
  %27 = load ptr, ptr %26, align 8
  store ptr %27, ptr %9, align 8
  br label %28

28:                                               ; preds = %38, %25
  %29 = load ptr, ptr %9, align 8
  %30 = icmp ne ptr %29, null
  br i1 %30, label %31, label %44

31:                                               ; preds = %28
  %32 = load ptr, ptr %9, align 8
  %33 = getelementptr inbounds %struct.DdHook, ptr %32, i32 0, i32 0
  %34 = load ptr, ptr %33, align 8
  %35 = load ptr, ptr %6, align 8
  %36 = icmp eq ptr %34, %35
  br i1 %36, label %37, label %38

37:                                               ; preds = %31
  store i32 2, ptr %4, align 4
  br label %59

38:                                               ; preds = %31
  %39 = load ptr, ptr %9, align 8
  %40 = getelementptr inbounds %struct.DdHook, ptr %39, i32 0, i32 1
  store ptr %40, ptr %8, align 8
  %41 = load ptr, ptr %9, align 8
  %42 = getelementptr inbounds %struct.DdHook, ptr %41, i32 0, i32 1
  %43 = load ptr, ptr %42, align 8
  store ptr %43, ptr %9, align 8
  br label %28, !llvm.loop !31

44:                                               ; preds = %28
  %45 = call noalias ptr @malloc(i64 noundef 16) #7
  store ptr %45, ptr %10, align 8
  %46 = load ptr, ptr %10, align 8
  %47 = icmp eq ptr %46, null
  br i1 %47, label %48, label %51

48:                                               ; preds = %44
  %49 = load ptr, ptr %5, align 8
  %50 = getelementptr inbounds %struct.DdManager, ptr %49, i32 0, i32 86
  store i32 1, ptr %50, align 8
  store i32 0, ptr %4, align 4
  br label %59

51:                                               ; preds = %44
  %52 = load ptr, ptr %10, align 8
  %53 = getelementptr inbounds %struct.DdHook, ptr %52, i32 0, i32 1
  store ptr null, ptr %53, align 8
  %54 = load ptr, ptr %6, align 8
  %55 = load ptr, ptr %10, align 8
  %56 = getelementptr inbounds %struct.DdHook, ptr %55, i32 0, i32 0
  store ptr %54, ptr %56, align 8
  %57 = load ptr, ptr %10, align 8
  %58 = load ptr, ptr %8, align 8
  store ptr %57, ptr %58, align 8
  store i32 1, ptr %4, align 4
  br label %59

59:                                               ; preds = %51, %48, %37, %24
  %60 = load i32, ptr %4, align 4
  ret i32 %60
}