; Function Attrs: nofree nounwind uwtable
define range(i32 0, 3) i32 @Cudd_AddHook(ptr noundef captures(none) %0, ptr noundef %1, i32 noundef %2) local_unnamed_addr #16 {
  %4 = icmp ult i32 %2, 4
  br i1 %4, label %switch.lookup, label %.loopexit

switch.lookup:                                    ; preds = %3
  %5 = shl nuw nsw i32 %2, 3
  %6 = or disjoint i32 %5, 576
  %switch.offset = zext nneg i32 %6 to i64
  %7 = getelementptr inbounds nuw i8, ptr %0, i64 %switch.offset
  %.01822 = load ptr, ptr %7, align 8
  %.not23 = icmp eq ptr %.01822, null
  br i1 %.not23, label %._crit_edge, label %.lr.ph

8:                                                ; preds = %.lr.ph
  %9 = getelementptr inbounds nuw i8, ptr %.01824, i64 8
  %.018 = load ptr, ptr %9, align 8
  %.not = icmp eq ptr %.018, null
  br i1 %.not, label %._crit_edge.loopexit, label %.lr.ph, !llvm.loop !30

.lr.ph:                                           ; preds = %switch.lookup, %8
  %.01824 = phi ptr [ %.018, %8 ], [ %.01822, %switch.lookup ]
  %10 = load ptr, ptr %.01824, align 8
  %11 = icmp eq ptr %10, %1
  br i1 %11, label %.loopexit, label %8

._crit_edge.loopexit:                             ; preds = %8
  %12 = getelementptr inbounds nuw i8, ptr %.01824, i64 8
  br label %._crit_edge

._crit_edge:                                      ; preds = %._crit_edge.loopexit, %switch.lookup
  %.1.lcssa = phi ptr [ %7, %switch.lookup ], [ %12, %._crit_edge.loopexit ]
  %13 = tail call noalias dereferenceable_or_null(16) ptr @malloc(i64 noundef 16) #21
  %14 = icmp eq ptr %13, null
  br i1 %14, label %15, label %17

15:                                               ; preds = %._crit_edge
  %16 = getelementptr inbounds nuw i8, ptr %0, i64 624
  store i32 1, ptr %16, align 8
  br label %.loopexit

17:                                               ; preds = %._crit_edge
  %18 = getelementptr inbounds nuw i8, ptr %13, i64 8
  store ptr null, ptr %18, align 8
  store ptr %1, ptr %13, align 8
  store ptr %13, ptr %.1.lcssa, align 8
  br label %.loopexit

.loopexit:                                        ; preds = %.lr.ph, %3, %17, %15
  %.0 = phi i32 [ 0, %15 ], [ 1, %17 ], [ 0, %3 ], [ 2, %.lr.ph ]
  ret i32 %.0
}